target datalayout = "e-m:e-p270:32:32-p271:32:32-p272:64:64-i64:64-i128:128-f80:128-n8:16:32:64-S128"
target triple = "x86_64-pc-linux-gnu"

%struct.SDL_Surface = type { i32, i32, i32, i32, i32, ptr, i32, ptr, i32, i32, ptr, i32, ptr, i32, ptr, i32, %struct.SDL_Rect, %struct.SDL_BlitMap }
%struct.SDL_Rect = type { i32, i32, i32, i32 }
%struct.SDL_BlitMap = type { i32, ptr, ptr, %struct.SDL_BlitInfo, i32, i32 }
%struct.SDL_BlitInfo = type { ptr, ptr, i32, i32, i32, i32, ptr, ptr, i32, i32, i32, i32, ptr, ptr, ptr, ptr, ptr, ptr, i32, i32, i8, i8, i8, i8 }

@SDL_surface_magic = internal global i8 0, align 1
@.str = private unnamed_addr constant [26 x i8] c"Parameter '%s' is invalid\00", align 1
@.str.5 = private unnamed_addr constant [8 x i8] c"surface\00", align 1
@.str.26 = private unnamed_addr constant [2 x i8] c"x\00", align 1
@.str.27 = private unnamed_addr constant [2 x i8] c"y\00", align 1

; Function Attrs: nounwind uwtable
define hidden zeroext i1 @SDL_SurfaceValid(ptr noundef %0) #0 {
  %2 = alloca ptr, align 8
  store ptr %0, ptr %2, align 8
  %3 = load ptr, ptr %2, align 8
  %4 = icmp ne ptr %3, null
  br i1 %4, label %5, label %10

5:                                                ; preds = %1
  %6 = load ptr, ptr %2, align 8
  %7 = getelementptr inbounds nuw %struct.SDL_Surface, ptr %6, i32 0, i32 7
  %8 = load ptr, ptr %7, align 8
  %9 = icmp eq ptr %8, @SDL_surface_magic
  br label %10

10:                                               ; preds = %5, %1
  %11 = phi i1 [ false, %1 ], [ %9, %5 ]
  ret i1 %11
}

; Function Attrs: nounwind uwtable
define hidden zeroext i1 @SDL_ReadSurfacePixel_REAL(ptr noundef %0, i32 noundef %1, i32 noundef %2, ptr noundef %3, ptr noundef %4, ptr noundef %5, ptr noundef %6) #0 {
  %8 = alloca i1, align 1
  %9 = alloca ptr, align 8
  %10 = alloca i32, align 4
  %11 = alloca i32, align 4
  %12 = alloca ptr, align 8
  %13 = alloca ptr, align 8
  %14 = alloca ptr, align 8
  %15 = alloca ptr, align 8
  %16 = alloca i32, align 4
  %17 = alloca i64, align 8
  %18 = alloca i8, align 1
  %19 = alloca ptr, align 8
  %20 = alloca i8, align 1
  %21 = alloca i32, align 4
  %22 = alloca ptr, align 8
  %23 = alloca [4 x i8], align 1
  store ptr %0, ptr %9, align 8
  store i32 %1, ptr %10, align 4
  store i32 %2, ptr %11, align 4
  store ptr %3, ptr %12, align 8
  store ptr %4, ptr %13, align 8
  store ptr %5, ptr %14, align 8
  store ptr %6, ptr %15, align 8
  call void @llvm.lifetime.start.p0(i64 4, ptr %16) #8
  store i32 0, ptr %16, align 4
  call void @llvm.lifetime.start.p0(i64 8, ptr %17) #8
  call void @llvm.lifetime.start.p0(i64 1, ptr %18) #8
  call void @llvm.lifetime.start.p0(i64 8, ptr %19) #8
  call void @llvm.lifetime.start.p0(i64 1, ptr %20) #8
  store i8 0, ptr %20, align 1
  %24 = load ptr, ptr %12, align 8
  %25 = icmp ne ptr %24, null
  br i1 %25, label %26, label %28

26:                                               ; preds = %7
  %27 = load ptr, ptr %12, align 8
  store i8 0, ptr %27, align 1
  br label %29

28:                                               ; preds = %7
  store ptr %18, ptr %12, align 8
  br label %29

29:                                               ; preds = %28, %26
  %30 = load ptr, ptr %13, align 8
  %31 = icmp ne ptr %30, null
  br i1 %31, label %32, label %34

32:                                               ; preds = %29
  %33 = load ptr, ptr %13, align 8
  store i8 0, ptr %33, align 1
  br label %35

34:                                               ; preds = %29
  store ptr %18, ptr %13, align 8
  br label %35

35:                                               ; preds = %34, %32
  %36 = load ptr, ptr %14, align 8
  %37 = icmp ne ptr %36, null
  br i1 %37, label %38, label %40

38:                                               ; preds = %35
  %39 = load ptr, ptr %14, align 8
  store i8 0, ptr %39, align 1
  br label %41

40:                                               ; preds = %35
  store ptr %18, ptr %14, align 8
  br label %41

41:                                               ; preds = %40, %38
  %42 = load ptr, ptr %15, align 8
  %43 = icmp ne ptr %42, null
  br i1 %43, label %44, label %46

44:                                               ; preds = %41
  %45 = load ptr, ptr %15, align 8
  store i8 0, ptr %45, align 1
  br label %47

46:                                               ; preds = %41
  store ptr %18, ptr %15, align 8
  br label %47

47:                                               ; preds = %46, %44
  %48 = load ptr, ptr %9, align 8
  %49 = call zeroext i1 @SDL_SurfaceValid(ptr noundef %48)
  br i1 %49, label %50, label %60

50:                                               ; preds = %47
  %51 = load ptr, ptr %9, align 8
  %52 = getelementptr inbounds nuw %struct.SDL_Surface, ptr %51, i32 0, i32 1
  %53 = load i32, ptr %52, align 4
  %54 = icmp ne i32 %53, 0
  br i1 %54, label %55, label %60

55:                                               ; preds = %50
  %56 = load ptr, ptr %9, align 8
  %57 = getelementptr inbounds nuw %struct.SDL_Surface, ptr %56, i32 0, i32 5
  %58 = load ptr, ptr %57, align 8
  %59 = icmp ne ptr %58, null
  br i1 %59, label %62, label %60

60:                                               ; preds = %55, %50, %47
  %61 = call zeroext i1 (ptr, ...) @SDL_SetError_REAL(ptr noundef @.str, ptr noundef @.str.5)
  store i1 %61, ptr %8, align 1
  store i32 1, ptr %21, align 4
  br label %253

62:                                               ; preds = %55
  %63 = load i32, ptr %10, align 4
  %64 = icmp slt i32 %63, 0
  br i1 %64, label %71, label %65

65:                                               ; preds = %62
  %66 = load i32, ptr %10, align 4
  %67 = load ptr, ptr %9, align 8
  %68 = getelementptr inbounds nuw %struct.SDL_Surface, ptr %67, i32 0, i32 2
  %69 = load i32, ptr %68, align 8
  %70 = icmp sge i32 %66, %69
  br i1 %70, label %71, label %73

71:                                               ; preds = %65, %62
  %72 = call zeroext i1 (ptr, ...) @SDL_SetError_REAL(ptr noundef @.str, ptr noundef @.str.26)
  store i1 %72, ptr %8, align 1
  store i32 1, ptr %21, align 4
  br label %253

73:                                               ; preds = %65
  %74 = load i32, ptr %11, align 4
  %75 = icmp slt i32 %74, 0
  br i1 %75, label %82, label %76

76:                                               ; preds = %73
  %77 = load i32, ptr %11, align 4
  %78 = load ptr, ptr %9, align 8
  %79 = getelementptr inbounds nuw %struct.SDL_Surface, ptr %78, i32 0, i32 3
  %80 = load i32, ptr %79, align 4
  %81 = icmp sge i32 %77, %80
  br i1 %81, label %82, label %84

82:                                               ; preds = %76, %73
  %83 = call zeroext i1 (ptr, ...) @SDL_SetError_REAL(ptr noundef @.str, ptr noundef @.str.27)
  store i1 %83, ptr %8, align 1
  store i32 1, ptr %21, align 4
  br label %253

84:                                               ; preds = %76
  %85 = load ptr, ptr %9, align 8
  %86 = getelementptr inbounds nuw %struct.SDL_Surface, ptr %85, i32 0, i32 1
  %87 = load i32, ptr %86, align 4
  %88 = icmp ne i32 %87, 0
  br i1 %88, label %89, label %119

89:                                               ; preds = %84
  %90 = load ptr, ptr %9, align 8
  %91 = getelementptr inbounds nuw %struct.SDL_Surface, ptr %90, i32 0, i32 1
  %92 = load i32, ptr %91, align 4
  %93 = lshr i32 %92, 28
  %94 = and i32 %93, 15
  %95 = icmp ne i32 %94, 1
  br i1 %95, label %96, label %119

96:                                               ; preds = %89
  %97 = load ptr, ptr %9, align 8
  %98 = getelementptr inbounds nuw %struct.SDL_Surface, ptr %97, i32 0, i32 1
  %99 = load i32, ptr %98, align 4
  %100 = icmp eq i32 %99, 844715353
  br i1 %100, label %116, label %101

101:                                              ; preds = %96
  %102 = load ptr, ptr %9, align 8
  %103 = getelementptr inbounds nuw %struct.SDL_Surface, ptr %102, i32 0, i32 1
  %104 = load i32, ptr %103, align 4
  %105 = icmp eq i32 %104, 1498831189
  br i1 %105, label %116, label %106

106:                                              ; preds = %101
  %107 = load ptr, ptr %9, align 8
  %108 = getelementptr inbounds nuw %struct.SDL_Surface, ptr %107, i32 0, i32 1
  %109 = load i32, ptr %108, align 4
  %110 = icmp eq i32 %109, 1431918169
  br i1 %110, label %116, label %111

111:                                              ; preds = %106
  %112 = load ptr, ptr %9, align 8
  %113 = getelementptr inbounds nuw %struct.SDL_Surface, ptr %112, i32 0, i32 1
  %114 = load i32, ptr %113, align 4
  %115 = icmp eq i32 %114, 808530000
  br label %116

116:                                              ; preds = %111, %106, %101, %96
  %117 = phi i1 [ true, %106 ], [ true, %101 ], [ true, %96 ], [ %115, %111 ]
  %118 = select i1 %117, i32 2, i32 1
  br label %125

119:                                              ; preds = %89, %84
  %120 = load ptr, ptr %9, align 8
  %121 = getelementptr inbounds nuw %struct.SDL_Surface, ptr %120, i32 0, i32 1
  %122 = load i32, ptr %121, align 4
  %123 = lshr i32 %122, 0
  %124 = and i32 %123, 255
  br label %125

125:                                              ; preds = %119, %116
  %126 = phi i32 [ %118, %116 ], [ %124, %119 ]
  %127 = zext i32 %126 to i64
  store i64 %127, ptr %17, align 8
  %128 = load ptr, ptr %9, align 8
  %129 = getelementptr inbounds nuw %struct.SDL_Surface, ptr %128, i32 0, i32 0
  %130 = load i32, ptr %129, align 8
  %131 = and i32 %130, 2
  %132 = icmp eq i32 %131, 2
  br i1 %132, label %133, label %138

133:                                              ; preds = %125
  %134 = load ptr, ptr %9, align 8
  %135 = call zeroext i1 @SDL_LockSurface_REAL(ptr noundef %134)
  br i1 %135, label %137, label %136

136:                                              ; preds = %133
  store i1 false, ptr %8, align 1
  store i32 1, ptr %21, align 4
  br label %253

137:                                              ; preds = %133
  br label %138

138:                                              ; preds = %137, %125
  %139 = load ptr, ptr %9, align 8
  %140 = getelementptr inbounds nuw %struct.SDL_Surface, ptr %139, i32 0, i32 5
  %141 = load ptr, ptr %140, align 8
  %142 = load i32, ptr %11, align 4
  %143 = load ptr, ptr %9, align 8
  %144 = getelementptr inbounds nuw %struct.SDL_Surface, ptr %143, i32 0, i32 4
  %145 = load i32, ptr %144, align 8
  %146 = mul nsw i32 %142, %145
  %147 = sext i32 %146 to i64
  %148 = getelementptr inbounds i8, ptr %141, i64 %147
  %149 = load i32, ptr %10, align 4
  %150 = sext i32 %149 to i64
  %151 = load i64, ptr %17, align 8
  %152 = mul i64 %150, %151
  %153 = getelementptr inbounds nuw i8, ptr %148, i64 %152
  store ptr %153, ptr %19, align 8
  %154 = load i64, ptr %17, align 8
  %155 = icmp ule i64 %154, 4
  br i1 %155, label %156, label %182

156:                                              ; preds = %138
  %157 = load ptr, ptr %9, align 8
  %158 = getelementptr inbounds nuw %struct.SDL_Surface, ptr %157, i32 0, i32 1
  %159 = load i32, ptr %158, align 4
  %160 = icmp ne i32 %159, 0
  br i1 %160, label %161, label %168

161:                                              ; preds = %156
  %162 = load ptr, ptr %9, align 8
  %163 = getelementptr inbounds nuw %struct.SDL_Surface, ptr %162, i32 0, i32 1
  %164 = load i32, ptr %163, align 4
  %165 = lshr i32 %164, 28
  %166 = and i32 %165, 15
  %167 = icmp ne i32 %166, 1
  br i1 %167, label %182, label %168

168:                                              ; preds = %161, %156
  %169 = load ptr, ptr %19, align 8
  %170 = load i64, ptr %17, align 8
  call void @llvm.memcpy.p0.p0.i64(ptr align 4 %16, ptr align 1 %169, i64 %170, i1 false)
  %171 = load i32, ptr %16, align 4
  %172 = load ptr, ptr %9, align 8
  %173 = getelementptr inbounds nuw %struct.SDL_Surface, ptr %172, i32 0, i32 10
  %174 = load ptr, ptr %173, align 8
  %175 = load ptr, ptr %9, align 8
  %176 = getelementptr inbounds nuw %struct.SDL_Surface, ptr %175, i32 0, i32 12
  %177 = load ptr, ptr %176, align 8
  %178 = load ptr, ptr %12, align 8
  %179 = load ptr, ptr %13, align 8
  %180 = load ptr, ptr %14, align 8
  %181 = load ptr, ptr %15, align 8
  call void @SDL_GetRGBA_REAL(i32 noundef %171, ptr noundef %174, ptr noundef %177, ptr noundef %178, ptr noundef %179, ptr noundef %180, ptr noundef %181)
  store i8 1, ptr %20, align 1
  br label %242

182:                                              ; preds = %161, %138
  %183 = load ptr, ptr %9, align 8
  %184 = getelementptr inbounds nuw %struct.SDL_Surface, ptr %183, i32 0, i32 1
  %185 = load i32, ptr %184, align 4
  %186 = icmp ne i32 %185, 0
  br i1 %186, label %187, label %211

187:                                              ; preds = %182
  %188 = load ptr, ptr %9, align 8
  %189 = getelementptr inbounds nuw %struct.SDL_Surface, ptr %188, i32 0, i32 1
  %190 = load i32, ptr %189, align 4
  %191 = lshr i32 %190, 28
  %192 = and i32 %191, 15
  %193 = icmp ne i32 %192, 1
  br i1 %193, label %194, label %211

194:                                              ; preds = %187
  call void @llvm.lifetime.start.p0(i64 8, ptr %22) #8
  %195 = load ptr, ptr %9, align 8
  %196 = call ptr @SDL_ConvertSurface_REAL(ptr noundef %195, i32 noundef 372645892)
  store ptr %196, ptr %22, align 8
  %197 = load ptr, ptr %22, align 8
  %198 = icmp ne ptr %197, null
  br i1 %198, label %199, label %210

199:                                              ; preds = %194
  %200 = load ptr, ptr %22, align 8
  %201 = load i32, ptr %10, align 4
  %202 = load i32, ptr %11, align 4
  %203 = load ptr, ptr %12, align 8
  %204 = load ptr, ptr %13, align 8
  %205 = load ptr, ptr %14, align 8
  %206 = load ptr, ptr %15, align 8
  %207 = call zeroext i1 @SDL_ReadSurfacePixel_REAL(ptr noundef %200, i32 noundef %201, i32 noundef %202, ptr noundef %203, ptr noundef %204, ptr noundef %205, ptr noundef %206)
  %208 = zext i1 %207 to i8
  store i8 %208, ptr %20, align 1
  %209 = load ptr, ptr %22, align 8
  call void @SDL_DestroySurface_REAL(ptr noundef %209)
  br label %210

210:                                              ; preds = %199, %194
  call void @llvm.lifetime.end.p0(i64 8, ptr %22) #8
  br label %241

211:                                              ; preds = %187, %182
  call void @llvm.lifetime.start.p0(i64 4, ptr %23) #8
  %212 = load ptr, ptr %9, align 8
  %213 = getelementptr inbounds nuw %struct.SDL_Surface, ptr %212, i32 0, i32 1
  %214 = load i32, ptr %213, align 4
  %215 = load ptr, ptr %9, align 8
  %216 = getelementptr inbounds nuw %struct.SDL_Surface, ptr %215, i32 0, i32 11
  %217 = load i32, ptr %216, align 8
  %218 = load ptr, ptr %9, align 8
  %219 = getelementptr inbounds nuw %struct.SDL_Surface, ptr %218, i32 0, i32 9
  %220 = load i32, ptr %219, align 4
  %221 = load ptr, ptr %19, align 8
  %222 = load ptr, ptr %9, align 8
  %223 = getelementptr inbounds nuw %struct.SDL_Surface, ptr %222, i32 0, i32 4
  %224 = load i32, ptr %223, align 8
  %225 = getelementptr inbounds [4 x i8], ptr %23, i64 0, i64 0
  %226 = call zeroext i1 @SDL_ConvertPixelsAndColorspace_REAL(i32 noundef 1, i32 noundef 1, i32 noundef %214, i32 noundef %217, i32 noundef %220, ptr noundef %221, i32 noundef %224, i32 noundef 376840196, i32 noundef 301991328, i32 noundef 0, ptr noundef %225, i32 noundef 4)
  br i1 %226, label %227, label %240

227:                                              ; preds = %211
  %228 = getelementptr inbounds [4 x i8], ptr %23, i64 0, i64 0
  %229 = load i8, ptr %228, align 1
  %230 = load ptr, ptr %12, align 8
  store i8 %229, ptr %230, align 1
  %231 = getelementptr inbounds [4 x i8], ptr %23, i64 0, i64 1
  %232 = load i8, ptr %231, align 1
  %233 = load ptr, ptr %13, align 8
  store i8 %232, ptr %233, align 1
  %234 = getelementptr inbounds [4 x i8], ptr %23, i64 0, i64 2
  %235 = load i8, ptr %234, align 1
  %236 = load ptr, ptr %14, align 8
  store i8 %235, ptr %236, align 1
  %237 = getelementptr inbounds [4 x i8], ptr %23, i64 0, i64 3
  %238 = load i8, ptr %237, align 1
  %239 = load ptr, ptr %15, align 8
  store i8 %238, ptr %239, align 1
  store i8 1, ptr %20, align 1
  br label %240

240:                                              ; preds = %227, %211
  call void @llvm.lifetime.end.p0(i64 4, ptr %23) #8
  br label %241

241:                                              ; preds = %240, %210
  br label %242

242:                                              ; preds = %241, %168
  %243 = load ptr, ptr %9, align 8
  %244 = getelementptr inbounds nuw %struct.SDL_Surface, ptr %243, i32 0, i32 0
  %245 = load i32, ptr %244, align 8
  %246 = and i32 %245, 2
  %247 = icmp eq i32 %246, 2
  br i1 %247, label %248, label %250

248:                                              ; preds = %242
  %249 = load ptr, ptr %9, align 8
  call void @SDL_UnlockSurface_REAL(ptr noundef %249)
  br label %250

250:                                              ; preds = %248, %242
  %251 = load i8, ptr %20, align 1, !range !3, !noundef !4
  %252 = trunc i8 %251 to i1
  store i1 %252, ptr %8, align 1
  store i32 1, ptr %21, align 4
  br label %253

253:                                              ; preds = %250, %136, %82, %71, %60
  call void @llvm.lifetime.end.p0(i64 1, ptr %20) #8
  call void @llvm.lifetime.end.p0(i64 8, ptr %19) #8
  call void @llvm.lifetime.end.p0(i64 1, ptr %18) #8
  call void @llvm.lifetime.end.p0(i64 8, ptr %17) #8
  call void @llvm.lifetime.end.p0(i64 4, ptr %16) #8
  %254 = load i1, ptr %8, align 1
  ret i1 %254
}