; Function Attrs: nounwind uwtable
define hidden zeroext i1 @SDL_ReadSurfacePixel_REAL(ptr noundef %0, i32 noundef %1, i32 noundef %2, ptr noundef %3, ptr noundef %4, ptr noundef %5, ptr noundef %6) local_unnamed_addr #2 {
  %8 = alloca i32, align 4
  %9 = alloca i8, align 1
  %10 = alloca [4 x i8], align 1
  call void @llvm.lifetime.start.p0(i64 4, ptr nonnull %8)
  store i32 0, ptr %8, align 4
  call void @llvm.lifetime.start.p0(i64 1, ptr nonnull %9) #10
  %.not = icmp eq ptr %3, null
  br i1 %.not, label %12, label %11

11:                                               ; preds = %7
  store i8 0, ptr %3, align 1
  br label %12

12:                                               ; preds = %7, %11
  %.068 = phi ptr [ %3, %11 ], [ %9, %7 ]
  %.not83 = icmp eq ptr %4, null
  br i1 %.not83, label %14, label %13

13:                                               ; preds = %12
  store i8 0, ptr %4, align 1
  br label %14

14:                                               ; preds = %12, %13
  %.069 = phi ptr [ %4, %13 ], [ %9, %12 ]
  %.not84 = icmp eq ptr %5, null
  br i1 %.not84, label %16, label %15

15:                                               ; preds = %14
  store i8 0, ptr %5, align 1
  br label %16

16:                                               ; preds = %14, %15
  %.071 = phi ptr [ %5, %15 ], [ %9, %14 ]
  %.not85 = icmp eq ptr %6, null
  br i1 %.not85, label %18, label %17

17:                                               ; preds = %16
  store i8 0, ptr %6, align 1
  br label %18

18:                                               ; preds = %16, %17
  %.070 = phi ptr [ %6, %17 ], [ %9, %16 ]
  %.not.i = icmp eq ptr %0, null
  br i1 %.not.i, label %SDL_SurfaceValid.exit.thread, label %SDL_SurfaceValid.exit

SDL_SurfaceValid.exit:                            ; preds = %18
  %19 = getelementptr inbounds nuw i8, ptr %0, i64 40
  %20 = load ptr, ptr %19, align 8
  %21 = icmp eq ptr %20, @SDL_surface_magic
  br i1 %21, label %22, label %SDL_SurfaceValid.exit.thread

22:                                               ; preds = %SDL_SurfaceValid.exit
  %23 = getelementptr inbounds nuw i8, ptr %0, i64 4
  %24 = load i32, ptr %23, align 4
  %.not86 = icmp eq i32 %24, 0
  br i1 %.not86, label %SDL_SurfaceValid.exit.thread, label %25

25:                                               ; preds = %22
  %26 = getelementptr inbounds nuw i8, ptr %0, i64 24
  %27 = load ptr, ptr %26, align 8
  %.not87 = icmp eq ptr %27, null
  br i1 %.not87, label %SDL_SurfaceValid.exit.thread, label %29

SDL_SurfaceValid.exit.thread:                     ; preds = %18, %25, %22, %SDL_SurfaceValid.exit
  %28 = tail call zeroext i1 (ptr, ...) @SDL_SetError_REAL(ptr noundef nonnull @.str, ptr noundef nonnull @.str.5) #10
  br label %99

29:                                               ; preds = %25
  %30 = icmp slt i32 %1, 0
  br i1 %30, label %34, label %31

31:                                               ; preds = %29
  %32 = getelementptr inbounds nuw i8, ptr %0, i64 8
  %33 = load i32, ptr %32, align 8
  %.not88 = icmp slt i32 %1, %33
  br i1 %.not88, label %36, label %34

34:                                               ; preds = %31, %29
  %35 = tail call zeroext i1 (ptr, ...) @SDL_SetError_REAL(ptr noundef nonnull @.str, ptr noundef nonnull @.str.26) #10
  br label %99

36:                                               ; preds = %31
  %37 = icmp slt i32 %2, 0
  br i1 %37, label %41, label %38

38:                                               ; preds = %36
  %39 = getelementptr inbounds nuw i8, ptr %0, i64 12
  %40 = load i32, ptr %39, align 4
  %.not89 = icmp slt i32 %2, %40
  br i1 %.not89, label %43, label %41

41:                                               ; preds = %38, %36
  %42 = tail call zeroext i1 (ptr, ...) @SDL_SetError_REAL(ptr noundef nonnull @.str, ptr noundef nonnull @.str.27) #10
  br label %99

43:                                               ; preds = %38
  %.mask = and i32 %24, -268435456
  %.not90 = icmp eq i32 %.mask, 268435456
  br i1 %.not90, label %48, label %44

44:                                               ; preds = %43
  switch i32 %24, label %45 [
    i32 844715353, label %50
    i32 1498831189, label %50
    i32 1431918169, label %50
  ]

45:                                               ; preds = %44
  %46 = icmp eq i32 %24, 808530000
  %47 = select i1 %46, i32 2, i32 1
  br label %50

48:                                               ; preds = %43
  %49 = and i32 %24, 255
  br label %50

50:                                               ; preds = %45, %44, %44, %44, %48
  %51 = phi i32 [ %49, %48 ], [ 2, %44 ], [ %47, %45 ], [ 2, %44 ], [ 2, %44 ]
  %52 = zext nneg i32 %51 to i64
  %53 = load i32, ptr %0, align 8
  %54 = and i32 %53, 2
  %.not91 = icmp eq i32 %54, 0
  br i1 %.not91, label %57, label %55

55:                                               ; preds = %50
  %56 = tail call zeroext i1 @SDL_LockSurface_REAL(ptr noundef nonnull %0)
  br i1 %56, label %._crit_edge, label %99

._crit_edge:                                      ; preds = %55
  %.pre = load ptr, ptr %26, align 8
  %.pre101.pre = load i32, ptr %23, align 4
  br label %57

57:                                               ; preds = %._crit_edge, %50
  %.pre101 = phi i32 [ %.pre101.pre, %._crit_edge ], [ %24, %50 ]
  %58 = phi ptr [ %.pre, %._crit_edge ], [ %27, %50 ]
  %59 = getelementptr inbounds nuw i8, ptr %0, i64 16
  %60 = load i32, ptr %59, align 8
  %61 = mul nsw i32 %60, %2
  %62 = sext i32 %61 to i64
  %63 = getelementptr inbounds i8, ptr %58, i64 %62
  %64 = zext nneg i32 %1 to i64
  %65 = mul nuw nsw i64 %52, %64
  %66 = getelementptr inbounds nuw i8, ptr %63, i64 %65
  %67 = icmp samesign ult i32 %51, 5
  br i1 %67, label %69, label %._crit_edge103

._crit_edge103:                                   ; preds = %57
  %.pre104 = and i32 %.pre101, -268435456
  %68 = icmp eq i32 %.pre104, 268435456
  br label %75

69:                                               ; preds = %57
  %.not92 = icmp eq i32 %.pre101, 0
  %.mask94 = and i32 %.pre101, -268435456
  %.not93 = icmp eq i32 %.mask94, 268435456
  %or.cond = or i1 %.not92, %.not93
  br i1 %or.cond, label %70, label %75

70:                                               ; preds = %69
  call void @llvm.memcpy.p0.p0.i64(ptr nonnull align 4 %8, ptr align 1 %66, i64 %52, i1 false)
  %.0..0..0..0.8 = load i32, ptr %8, align 4
  %71 = getelementptr inbounds nuw i8, ptr %0, i64 56
  %72 = load ptr, ptr %71, align 8
  %73 = getelementptr inbounds nuw i8, ptr %0, i64 72
  %74 = load ptr, ptr %73, align 8
  call void @SDL_GetRGBA_REAL(i32 noundef %.0..0..0..0.8, ptr noundef %72, ptr noundef %74, ptr noundef nonnull %.068, ptr noundef nonnull %.069, ptr noundef nonnull %.071, ptr noundef nonnull %.070) #10
  br label %95

75:                                               ; preds = %._crit_edge103, %69
  %.mask97.pre-phi = phi i1 [ %68, %._crit_edge103 ], [ false, %69 ]
  %.not95 = icmp eq i32 %.pre101, 0
  %or.cond100 = or i1 %.not95, %.mask97.pre-phi
  br i1 %or.cond100, label %80, label %76

76:                                               ; preds = %75
  %77 = tail call ptr @SDL_ConvertSurface_REAL(ptr noundef nonnull %0, i32 noundef 372645892)
  %.not98 = icmp eq ptr %77, null
  br i1 %.not98, label %95, label %78

78:                                               ; preds = %76
  %79 = call zeroext i1 @SDL_ReadSurfacePixel_REAL(ptr noundef nonnull %77, i32 noundef %1, i32 noundef %2, ptr noundef nonnull %.068, ptr noundef nonnull %.069, ptr noundef nonnull %.071, ptr noundef nonnull %.070)
  call void @SDL_DestroySurface_REAL(ptr noundef nonnull %77)
  br label %95

80:                                               ; preds = %75
  call void @llvm.lifetime.start.p0(i64 4, ptr nonnull %10) #10
  %81 = getelementptr inbounds nuw i8, ptr %0, i64 64
  %82 = load i32, ptr %81, align 8
  %83 = getelementptr inbounds nuw i8, ptr %0, i64 52
  %84 = load i32, ptr %83, align 4
  %85 = call zeroext i1 @SDL_ConvertPixelsAndColorspace_REAL(i32 noundef 1, i32 noundef 1, i32 noundef %.pre101, i32 noundef %82, i32 noundef %84, ptr noundef %66, i32 noundef %60, i32 noundef 376840196, i32 noundef 301991328, i32 noundef 0, ptr noundef nonnull %10, i32 noundef 4)
  br i1 %85, label %86, label %94

86:                                               ; preds = %80
  %87 = load i8, ptr %10, align 1
  store i8 %87, ptr %.068, align 1
  %88 = getelementptr inbounds nuw i8, ptr %10, i64 1
  %89 = load i8, ptr %88, align 1
  store i8 %89, ptr %.069, align 1
  %90 = getelementptr inbounds nuw i8, ptr %10, i64 2
  %91 = load i8, ptr %90, align 1
  store i8 %91, ptr %.071, align 1
  %92 = getelementptr inbounds nuw i8, ptr %10, i64 3
  %93 = load i8, ptr %92, align 1
  store i8 %93, ptr %.070, align 1
  br label %94

94:                                               ; preds = %86, %80
  call void @llvm.lifetime.end.p0(i64 4, ptr nonnull %10) #10
  br label %95

95:                                               ; preds = %76, %78, %94, %70
  %.067 = phi i1 [ %85, %94 ], [ true, %70 ], [ %79, %78 ], [ false, %76 ]
  %96 = load i32, ptr %0, align 8
  %97 = and i32 %96, 2
  %.not99 = icmp eq i32 %97, 0
  br i1 %.not99, label %99, label %98

98:                                               ; preds = %95
  call void @SDL_UnlockSurface_REAL(ptr noundef nonnull %0)
  br label %99

99:                                               ; preds = %95, %98, %55, %41, %34, %SDL_SurfaceValid.exit.thread
  %.0 = phi i1 [ %35, %34 ], [ %42, %41 ], [ %28, %SDL_SurfaceValid.exit.thread ], [ false, %55 ], [ %.067, %98 ], [ %.067, %95 ]
  call void @llvm.lifetime.end.p0(i64 1, ptr nonnull %9) #10
  call void @llvm.lifetime.end.p0(i64 4, ptr nonnull %8)
  ret i1 %.0
}